; Function Attrs: nounwind uwtable
define void @cli_event_time_nested_start(ptr noundef %0, i32 noundef %1, i32 noundef %2) local_unnamed_addr #5 {
  %4 = alloca %struct.timeval, align 8
  call void @llvm.lifetime.start.p0(i64 16, ptr nonnull %4) #14
  %.not.i = icmp eq ptr %0, null
  br i1 %.not.i, label %cli_event_error_str.exit, label %5

5:                                                ; preds = %3
  %6 = getelementptr inbounds nuw i8, ptr %0, i64 40
  %7 = load i32, ptr %6, align 8, !tbaa !3
  %.not8.i = icmp ult i32 %1, %7
  br i1 %.not8.i, label %40, label %8

8:                                                ; preds = %5
  tail call void (ptr, ...) @cli_warnmsg(ptr noundef nonnull @.str.8, ptr noundef nonnull @.str.18) #14
  %9 = getelementptr inbounds nuw i8, ptr %0, i64 28
  %10 = load i16, ptr %9, align 4
  %11 = lshr i16 %10, 8
  %trunc.i.i.i = trunc nuw i16 %11 to i8
  switch i8 %trunc.i.i.i, label %44 [
    i8 0, label %12
    i8 1, label %17
  ]

12:                                               ; preds = %8
  %13 = getelementptr inbounds nuw i8, ptr %0, i64 16
  store ptr @.str.18, ptr %13, align 8, !tbaa !17
  %14 = getelementptr inbounds nuw i8, ptr %0, i64 24
  %15 = load i32, ptr %14, align 8, !tbaa !18
  %16 = add i32 %15, 1
  store i32 %16, ptr %14, align 8, !tbaa !18
  br label %44

17:                                               ; preds = %8
  %18 = getelementptr inbounds nuw i8, ptr %0, i64 24
  %19 = load i32, ptr %18, align 8, !tbaa !18
  %20 = shl i32 %19, 3
  %21 = add i32 %20, 8
  %22 = getelementptr inbounds nuw i8, ptr %0, i64 16
  %23 = load ptr, ptr %22, align 8, !tbaa !17
  %24 = zext i32 %21 to i64
  %25 = tail call ptr @cli_safer_realloc(ptr noundef %23, i64 noundef %24) #14
  %.not.i.i.i.i = icmp eq ptr %25, null
  br i1 %.not.i.i.i.i, label %26, label %34

26:                                               ; preds = %17
  %27 = getelementptr inbounds nuw i8, ptr %0, i64 32
  %28 = load i64, ptr %27, align 8, !tbaa !15
  %29 = add i64 %28, %24
  store i64 %29, ptr %27, align 8, !tbaa !15
  %30 = getelementptr inbounds nuw i8, ptr %0, i64 44
  %31 = load i32, ptr %30, align 4, !tbaa !16
  %32 = add i32 %31, 1
  store i32 %32, ptr %30, align 4, !tbaa !16
  %.not6.i.i.i.i.i = icmp eq i32 %21, 0
  br i1 %.not6.i.i.i.i.i, label %44, label %33

33:                                               ; preds = %26
  tail call void (ptr, ...) @cli_errmsg(ptr noundef nonnull @.str.1, i32 noundef %21) #14
  br label %44

34:                                               ; preds = %17
  store ptr %25, ptr %22, align 8, !tbaa !17
  %35 = load i32, ptr %18, align 8, !tbaa !18
  %36 = zext i32 %35 to i64
  %37 = getelementptr inbounds nuw %union.ev_val, ptr %25, i64 %36
  store i64 ptrtoint (ptr @.str.18 to i64), ptr %37, align 8, !tbaa !17
  %38 = load i32, ptr %18, align 8, !tbaa !18
  %39 = add i32 %38, 1
  store i32 %39, ptr %18, align 8, !tbaa !18
  br label %44

40:                                               ; preds = %5
  %41 = load ptr, ptr %0, align 8, !tbaa !13
  %42 = zext i32 %1 to i64
  %43 = getelementptr inbounds nuw %struct.cli_event, ptr %41, i64 %42
  br label %44

44:                                               ; preds = %8, %12, %26, %33, %34, %40
  %.0.i.ph = phi ptr [ null, %34 ], [ null, %33 ], [ null, %26 ], [ null, %12 ], [ null, %8 ], [ %43, %40 ]
  %45 = load i32, ptr %6, align 8, !tbaa !3
  %.not8.i16 = icmp ult i32 %2, %45
  br i1 %.not8.i16, label %get_event.exit21, label %46

46:                                               ; preds = %44
  tail call void (ptr, ...) @cli_warnmsg(ptr noundef nonnull @.str.8, ptr noundef nonnull @.str.18) #14
  %47 = getelementptr inbounds nuw i8, ptr %0, i64 28
  %48 = load i16, ptr %47, align 4
  %49 = lshr i16 %48, 8
  %trunc.i.i.i17 = trunc nuw i16 %49 to i8
  switch i8 %trunc.i.i.i17, label %cli_event_error_str.exit [
    i8 0, label %50
    i8 1, label %55
  ]

50:                                               ; preds = %46
  %51 = getelementptr inbounds nuw i8, ptr %0, i64 16
  store ptr @.str.18, ptr %51, align 8, !tbaa !17
  %52 = getelementptr inbounds nuw i8, ptr %0, i64 24
  %53 = load i32, ptr %52, align 8, !tbaa !18
  %54 = add i32 %53, 1
  store i32 %54, ptr %52, align 8, !tbaa !18
  br label %cli_event_error_str.exit

55:                                               ; preds = %46
  %56 = getelementptr inbounds nuw i8, ptr %0, i64 24
  %57 = load i32, ptr %56, align 8, !tbaa !18
  %58 = shl i32 %57, 3
  %59 = add i32 %58, 8
  %60 = getelementptr inbounds nuw i8, ptr %0, i64 16
  %61 = load ptr, ptr %60, align 8, !tbaa !17
  %62 = zext i32 %59 to i64
  %63 = tail call ptr @cli_safer_realloc(ptr noundef %61, i64 noundef %62) #14
  %.not.i.i.i.i18 = icmp eq ptr %63, null
  br i1 %.not.i.i.i.i18, label %64, label %72

64:                                               ; preds = %55
  %65 = getelementptr inbounds nuw i8, ptr %0, i64 32
  %66 = load i64, ptr %65, align 8, !tbaa !15
  %67 = add i64 %66, %62
  store i64 %67, ptr %65, align 8, !tbaa !15
  %68 = getelementptr inbounds nuw i8, ptr %0, i64 44
  %69 = load i32, ptr %68, align 4, !tbaa !16
  %70 = add i32 %69, 1
  store i32 %70, ptr %68, align 4, !tbaa !16
  %.not6.i.i.i.i.i20 = icmp eq i32 %59, 0
  br i1 %.not6.i.i.i.i.i20, label %cli_event_error_str.exit, label %71

71:                                               ; preds = %64
  tail call void (ptr, ...) @cli_errmsg(ptr noundef nonnull @.str.1, i32 noundef %59) #14
  br label %cli_event_error_str.exit

72:                                               ; preds = %55
  store ptr %63, ptr %60, align 8, !tbaa !17
  %73 = load i32, ptr %56, align 8, !tbaa !18
  %74 = zext i32 %73 to i64
  %75 = getelementptr inbounds nuw %union.ev_val, ptr %63, i64 %74
  store i64 ptrtoint (ptr @.str.18 to i64), ptr %75, align 8, !tbaa !17
  %76 = load i32, ptr %56, align 8, !tbaa !18
  %77 = add i32 %76, 1
  store i32 %77, ptr %56, align 8, !tbaa !18
  br label %cli_event_error_str.exit

get_event.exit21:                                 ; preds = %44
  %78 = load ptr, ptr %0, align 8, !tbaa !13
  %79 = zext i32 %2 to i64
  %80 = getelementptr inbounds nuw %struct.cli_event, ptr %78, i64 %79
  %81 = icmp ne ptr %.0.i.ph, null
  %82 = icmp ne ptr %78, null
  %or.cond = select i1 %81, i1 %82, i1 false
  br i1 %or.cond, label %83, label %cli_event_error_str.exit

83:                                               ; preds = %get_event.exit21
  %84 = getelementptr inbounds nuw i8, ptr %.0.i.ph, i64 20
  %85 = load i16, ptr %84, align 4
  %86 = and i16 %85, 255
  %.not = icmp eq i16 %86, 5
  br i1 %.not, label %87, label %91

87:                                               ; preds = %83
  %88 = getelementptr inbounds nuw i8, ptr %80, i64 20
  %89 = load i16, ptr %88, align 4
  %90 = and i16 %89, 255
  %.not14 = icmp eq i16 %90, 5
  br i1 %.not14, label %123, label %91

91:                                               ; preds = %83, %87
  tail call void (ptr, ...) @cli_warnmsg(ptr noundef nonnull @.str.8, ptr noundef nonnull @.str.7) #14
  %92 = getelementptr inbounds nuw i8, ptr %0, i64 28
  %93 = load i16, ptr %92, align 4
  %94 = lshr i16 %93, 8
  %trunc.i.i = trunc nuw i16 %94 to i8
  switch i8 %trunc.i.i, label %cli_event_error_str.exit [
    i8 0, label %95
    i8 1, label %100
  ]

95:                                               ; preds = %91
  %96 = getelementptr inbounds nuw i8, ptr %0, i64 16
  store ptr @.str.7, ptr %96, align 8, !tbaa !17
  %97 = getelementptr inbounds nuw i8, ptr %0, i64 24
  %98 = load i32, ptr %97, align 8, !tbaa !18
  %99 = add i32 %98, 1
  store i32 %99, ptr %97, align 8, !tbaa !18
  br label %cli_event_error_str.exit

100:                                              ; preds = %91
  %101 = getelementptr inbounds nuw i8, ptr %0, i64 24
  %102 = load i32, ptr %101, align 8, !tbaa !18
  %103 = shl i32 %102, 3
  %104 = add i32 %103, 8
  %105 = getelementptr inbounds nuw i8, ptr %0, i64 16
  %106 = load ptr, ptr %105, align 8, !tbaa !17
  %107 = zext i32 %104 to i64
  %108 = tail call ptr @cli_safer_realloc(ptr noundef %106, i64 noundef %107) #14
  %.not.i.i.i = icmp eq ptr %108, null
  br i1 %.not.i.i.i, label %109, label %117

109:                                              ; preds = %100
  %110 = getelementptr inbounds nuw i8, ptr %0, i64 32
  %111 = load i64, ptr %110, align 8, !tbaa !15
  %112 = add i64 %111, %107
  store i64 %112, ptr %110, align 8, !tbaa !15
  %113 = getelementptr inbounds nuw i8, ptr %0, i64 44
  %114 = load i32, ptr %113, align 4, !tbaa !16
  %115 = add i32 %114, 1
  store i32 %115, ptr %113, align 4, !tbaa !16
  %.not6.i.i.i.i = icmp eq i32 %104, 0
  br i1 %.not6.i.i.i.i, label %cli_event_error_str.exit, label %116

116:                                              ; preds = %109
  tail call void (ptr, ...) @cli_errmsg(ptr noundef nonnull @.str.1, i32 noundef %104) #14
  br label %cli_event_error_str.exit

117:                                              ; preds = %100
  store ptr %108, ptr %105, align 8, !tbaa !17
  %118 = load i32, ptr %101, align 8, !tbaa !18
  %119 = zext i32 %118 to i64
  %120 = getelementptr inbounds nuw %union.ev_val, ptr %108, i64 %119
  store i64 ptrtoint (ptr @.str.7 to i64), ptr %120, align 8, !tbaa !17
  %121 = load i32, ptr %101, align 8, !tbaa !18
  %122 = add i32 %121, 1
  store i32 %122, ptr %101, align 8, !tbaa !18
  br label %cli_event_error_str.exit

123:                                              ; preds = %87
  %124 = call i32 @gettimeofday(ptr noundef nonnull %4, ptr noundef null) #14
  %125 = load i64, ptr %4, align 8, !tbaa !20
  %126 = getelementptr inbounds nuw i8, ptr %4, i64 8
  %127 = load i64, ptr %126, align 8, !tbaa !22
  %128 = getelementptr inbounds nuw i8, ptr %.0.i.ph, i64 8
  %129 = load i64, ptr %128, align 8, !tbaa !17
  %.neg = mul i64 %125, -1000000
  %.neg30 = sub i64 %.neg, %127
  %130 = add i64 %.neg30, %129
  store i64 %130, ptr %128, align 8, !tbaa !17
  %131 = getelementptr inbounds nuw i8, ptr %80, i64 8
  %132 = load i64, ptr %131, align 8, !tbaa !17
  %133 = add i64 %132, %130
  store i64 %133, ptr %128, align 8, !tbaa !17
  %134 = getelementptr inbounds nuw i8, ptr %.0.i.ph, i64 16
  %135 = load i32, ptr %134, align 8, !tbaa !18
  %136 = add i32 %135, 1
  store i32 %136, ptr %134, align 8, !tbaa !18
  br label %cli_event_error_str.exit

cli_event_error_str.exit:                         ; preds = %72, %71, %64, %50, %46, %3, %117, %116, %109, %95, %91, %get_event.exit21, %123
  call void @llvm.lifetime.end.p0(i64 16, ptr nonnull %4) #14
  ret void
}